target datalayout = "e-m:e-p270:32:32-p271:32:32-p272:64:64-i64:64-i128:128-f80:128-n8:16:32:64-S128"
target triple = "x86_64-pc-linux-gnu"

%union.pthread_cond_t = type { %struct.__pthread_cond_s }
%struct.__pthread_cond_s = type { %union.__atomic_wide_counter, %union.__atomic_wide_counter, [2 x i32], [2 x i32], i32, i32, [2 x i32] }
%union.__atomic_wide_counter = type { i64 }
%union.pthread_mutex_t = type { %struct.__pthread_mutex_s }
%struct.__pthread_mutex_s = type { i32, i32, i32, i32, i32, i16, i16, %struct.__pthread_internal_list }
%struct.__pthread_internal_list = type { ptr, ptr }
%struct.stepd_step_rec_t = type { ptr, ptr, i32, %union.pthread_cond_t, %union.pthread_mutex_t, %struct.slurm_step_id_msg, i32, i32, i32, i32, i32, i32, ptr, ptr, i32, i32, ptr, i32, i32, i32, i32, i32, ptr, ptr, ptr, ptr, i32, i32, i64, i64, i16, i32, ptr, ptr, ptr, i32, ptr, i32, ptr, i32, ptr, i16, i32, i32, i32, ptr, i32, ptr, ptr, ptr, ptr, i32, i32, ptr, ptr, i8, i8, i8, i64, i32, ptr, ptr, ptr, ptr, ptr, ptr, ptr, ptr, ptr, ptr, i32, i32, ptr, i8, %union.pthread_cond_t, %union.pthread_mutex_t, i64, ptr, i32, i32, i32, ptr, i64, ptr, ptr, i8, ptr, i16, ptr, ptr, ptr, ptr, ptr, ptr, i64, ptr, i64, ptr, i16, i8, i16, i32, ptr, i16, ptr, ptr, i16, ptr, ptr, ptr, i8 }
%struct.slurm_step_id_msg = type { i64, i32, i32, i32 }
%struct.sockaddr_storage = type { i16, [118 x i8], i64 }
%struct.slurm_msg = type { %struct.sockaddr_storage, ptr, i32, i32, i32, i8, i32, i8, i32, ptr, ptr, i32, ptr, ptr, i16, i8, i16, i16, %struct.forward, ptr, %struct.sockaddr_storage, ptr }
%struct.forward = type { %struct.slurm_node_alias_addrs_t, i16, i16, ptr, i32, i16, i16 }
%struct.slurm_node_alias_addrs_t = type { i64, ptr, ptr, i32, ptr }
%struct.launch_tasks_response_msg = type { i32, ptr, i32, i32, ptr, %struct.slurm_step_id_msg, ptr }
%struct.stepd_step_task_info_t = type { %union.pthread_mutex_t, i32, ptr, i32, i32, i32, ptr, ptr, ptr, i32, i32, i32, i32, i32, i32, ptr, ptr, ptr, i8, i8, i8, i8, i32, i32, ptr }
%struct.srun_info_t = type { ptr, %struct.sockaddr_storage, %struct.sockaddr_storage, i32, i16 }

@.str.16 = private unnamed_addr constant [6 x i8] c"mgr.c\00", align 1
@.str.210 = private unnamed_addr constant [45 x i8] c"%s: Failed to send RESPONSE_LAUNCH_TASKS: %m\00", align 1
@.str.211 = private unnamed_addr constant [26 x i8] c"Sending launch resp rc=%d\00", align 1
@__func__._send_launch_resp = private unnamed_addr constant [18 x i8] c"_send_launch_resp\00", align 1

; Function Attrs: nounwind uwtable
define internal void @_send_launch_resp(ptr noundef %0, i32 noundef %1) #0 {
  %3 = alloca ptr, align 8
  %4 = alloca i32, align 4
  %5 = alloca i32, align 4
  %6 = alloca %struct.slurm_msg, align 8
  %7 = alloca %struct.launch_tasks_response_msg, align 8
  %8 = alloca ptr, align 8
  %9 = alloca i32, align 4
  store ptr %0, ptr %3, align 8
  store i32 %1, ptr %4, align 4
  call void @llvm.lifetime.start.p0(i64 4, ptr %5) #12
  call void @llvm.lifetime.start.p0(i64 424, ptr %6) #12
  call void @llvm.lifetime.start.p0(i64 64, ptr %7) #12
  call void @llvm.lifetime.start.p0(i64 8, ptr %8) #12
  %10 = load ptr, ptr %3, align 8
  %11 = getelementptr inbounds nuw %struct.stepd_step_rec_t, ptr %10, i32 0, i32 64
  %12 = load ptr, ptr %11, align 8
  %13 = call ptr @list_peek(ptr noundef %12)
  store ptr %13, ptr %8, align 8
  %14 = load ptr, ptr %3, align 8
  %15 = getelementptr inbounds nuw %struct.stepd_step_rec_t, ptr %14, i32 0, i32 56
  %16 = load i8, ptr %15, align 1, !range !8, !noundef !9
  %17 = trunc i8 %16 to i1
  br i1 %17, label %18, label %19

18:                                               ; preds = %2
  store i32 1, ptr %9, align 4
  br label %121

19:                                               ; preds = %2
  br label %20

20:                                               ; preds = %19
  br label %21

21:                                               ; preds = %20
  %22 = call i32 @get_log_level()
  %23 = icmp sge i32 %22, 5
  br i1 %23, label %24, label %26

24:                                               ; preds = %21
  %25 = load i32, ptr %4, align 4
  call void (i32, ptr, ...) @log_var(i32 noundef 5, ptr noundef @.str.211, i32 noundef %25)
  br label %26

26:                                               ; preds = %24, %21
  br label %27

27:                                               ; preds = %26
  br label %28

28:                                               ; preds = %27
  br label %29

29:                                               ; preds = %28
  br label %30

30:                                               ; preds = %29
  call void @slurm_msg_t_init(ptr noundef %6)
  %31 = getelementptr inbounds nuw %struct.slurm_msg, ptr %6, i32 0, i32 0
  %32 = load ptr, ptr %8, align 8
  %33 = getelementptr inbounds nuw %struct.srun_info_t, ptr %32, i32 0, i32 1
  call void @llvm.memcpy.p0.p0.i64(ptr align 8 %31, ptr align 8 %33, i64 128, i1 false)
  %34 = load ptr, ptr %8, align 8
  %35 = getelementptr inbounds nuw %struct.srun_info_t, ptr %34, i32 0, i32 3
  %36 = load i32, ptr %35, align 8
  call void @slurm_msg_set_r_uid(ptr noundef %6, i32 noundef %36)
  %37 = load ptr, ptr %8, align 8
  %38 = getelementptr inbounds nuw %struct.srun_info_t, ptr %37, i32 0, i32 4
  %39 = load i16, ptr %38, align 4
  %40 = getelementptr inbounds nuw %struct.slurm_msg, ptr %6, i32 0, i32 17
  store i16 %39, ptr %40, align 2
  %41 = getelementptr inbounds nuw %struct.slurm_msg, ptr %6, i32 0, i32 13
  store ptr %7, ptr %41, align 8
  %42 = getelementptr inbounds nuw %struct.slurm_msg, ptr %6, i32 0, i32 16
  store i16 6002, ptr %42, align 4
  %43 = getelementptr inbounds nuw %struct.launch_tasks_response_msg, ptr %7, i32 0, i32 5
  %44 = load ptr, ptr %3, align 8
  %45 = getelementptr inbounds nuw %struct.stepd_step_rec_t, ptr %44, i32 0, i32 5
  call void @llvm.memcpy.p0.p0.i64(ptr align 8 %43, ptr align 8 %45, i64 24, i1 false)
  %46 = load ptr, ptr %3, align 8
  %47 = getelementptr inbounds nuw %struct.stepd_step_rec_t, ptr %46, i32 0, i32 36
  %48 = load ptr, ptr %47, align 8
  %49 = call ptr @xstrdup(ptr noundef %48)
  %50 = getelementptr inbounds nuw %struct.launch_tasks_response_msg, ptr %7, i32 0, i32 1
  store ptr %49, ptr %50, align 8
  %51 = load i32, ptr %4, align 4
  %52 = getelementptr inbounds nuw %struct.launch_tasks_response_msg, ptr %7, i32 0, i32 0
  store i32 %51, ptr %52, align 8
  %53 = load ptr, ptr %3, align 8
  %54 = getelementptr inbounds nuw %struct.stepd_step_rec_t, ptr %53, i32 0, i32 11
  %55 = load i32, ptr %54, align 4
  %56 = getelementptr inbounds nuw %struct.launch_tasks_response_msg, ptr %7, i32 0, i32 3
  store i32 %55, ptr %56, align 4
  %57 = load ptr, ptr %3, align 8
  %58 = getelementptr inbounds nuw %struct.stepd_step_rec_t, ptr %57, i32 0, i32 11
  %59 = load i32, ptr %58, align 4
  %60 = zext i32 %59 to i64
  %61 = mul i64 %60, 4
  %62 = call ptr @slurm_xcalloc(i64 noundef 1, i64 noundef %61, i1 noundef zeroext true, i1 noundef zeroext false, ptr noundef @.str.16, i32 noundef 2993, ptr noundef @__func__._send_launch_resp)
  %63 = getelementptr inbounds nuw %struct.launch_tasks_response_msg, ptr %7, i32 0, i32 4
  store ptr %62, ptr %63, align 8
  %64 = load ptr, ptr %3, align 8
  %65 = getelementptr inbounds nuw %struct.stepd_step_rec_t, ptr %64, i32 0, i32 11
  %66 = load i32, ptr %65, align 4
  %67 = zext i32 %66 to i64
  %68 = mul i64 %67, 4
  %69 = call ptr @slurm_xcalloc(i64 noundef 1, i64 noundef %68, i1 noundef zeroext true, i1 noundef zeroext false, ptr noundef @.str.16, i32 noundef 2994, ptr noundef @__func__._send_launch_resp)
  %70 = getelementptr inbounds nuw %struct.launch_tasks_response_msg, ptr %7, i32 0, i32 6
  store ptr %69, ptr %70, align 8
  store i32 0, ptr %5, align 4
  br label %71

71:                                               ; preds = %106, %30
  %72 = load i32, ptr %5, align 4
  %73 = load ptr, ptr %3, align 8
  %74 = getelementptr inbounds nuw %struct.stepd_step_rec_t, ptr %73, i32 0, i32 11
  %75 = load i32, ptr %74, align 4
  %76 = icmp ult i32 %72, %75
  br i1 %76, label %77, label %109

77:                                               ; preds = %71
  %78 = load ptr, ptr %3, align 8
  %79 = getelementptr inbounds nuw %struct.stepd_step_rec_t, ptr %78, i32 0, i32 62
  %80 = load ptr, ptr %79, align 8
  %81 = load i32, ptr %5, align 4
  %82 = sext i32 %81 to i64
  %83 = getelementptr inbounds ptr, ptr %80, i64 %82
  %84 = load ptr, ptr %83, align 8
  %85 = getelementptr inbounds nuw %struct.stepd_step_task_info_t, ptr %84, i32 0, i32 5
  %86 = load i32, ptr %85, align 8
  %87 = getelementptr inbounds nuw %struct.launch_tasks_response_msg, ptr %7, i32 0, i32 4
  %88 = load ptr, ptr %87, align 8
  %89 = load i32, ptr %5, align 4
  %90 = sext i32 %89 to i64
  %91 = getelementptr inbounds i32, ptr %88, i64 %90
  store i32 %86, ptr %91, align 4
  %92 = load ptr, ptr %3, align 8
  %93 = getelementptr inbounds nuw %struct.stepd_step_rec_t, ptr %92, i32 0, i32 62
  %94 = load ptr, ptr %93, align 8
  %95 = load i32, ptr %5, align 4
  %96 = sext i32 %95 to i64
  %97 = getelementptr inbounds ptr, ptr %94, i64 %96
  %98 = load ptr, ptr %97, align 8
  %99 = getelementptr inbounds nuw %struct.stepd_step_task_info_t, ptr %98, i32 0, i32 4
  %100 = load i32, ptr %99, align 4
  %101 = getelementptr inbounds nuw %struct.launch_tasks_response_msg, ptr %7, i32 0, i32 6
  %102 = load ptr, ptr %101, align 8
  %103 = load i32, ptr %5, align 4
  %104 = sext i32 %103 to i64
  %105 = getelementptr inbounds i32, ptr %102, i64 %104
  store i32 %100, ptr %105, align 4
  br label %106

106:                                              ; preds = %77
  %107 = load i32, ptr %5, align 4
  %108 = add nsw i32 %107, 1
  store i32 %108, ptr %5, align 4
  br label %71, !llvm.loop !27

109:                                              ; preds = %71
  %110 = load ptr, ptr %3, align 8
  %111 = getelementptr inbounds nuw %struct.stepd_step_rec_t, ptr %110, i32 0, i32 8
  %112 = load i32, ptr %111, align 8
  %113 = call i32 @_send_srun_resp_msg(ptr noundef %6, i32 noundef %112)
  %114 = icmp ne i32 %113, 0
  br i1 %114, label %115, label %117

115:                                              ; preds = %109
  %116 = call i32 (ptr, ...) @error(ptr noundef @.str.210, ptr noundef @__func__._send_launch_resp)
  br label %117

117:                                              ; preds = %115, %109
  %118 = getelementptr inbounds nuw %struct.launch_tasks_response_msg, ptr %7, i32 0, i32 4
  call void @slurm_xfree(ptr noundef %118)
  %119 = getelementptr inbounds nuw %struct.launch_tasks_response_msg, ptr %7, i32 0, i32 6
  call void @slurm_xfree(ptr noundef %119)
  %120 = getelementptr inbounds nuw %struct.launch_tasks_response_msg, ptr %7, i32 0, i32 1
  call void @slurm_xfree(ptr noundef %120)
  store i32 0, ptr %9, align 4
  br label %121

121:                                              ; preds = %117, %18
  call void @llvm.lifetime.end.p0(i64 8, ptr %8) #12
  call void @llvm.lifetime.end.p0(i64 64, ptr %7) #12
  call void @llvm.lifetime.end.p0(i64 424, ptr %6) #12
  call void @llvm.lifetime.end.p0(i64 4, ptr %5) #12
  %122 = load i32, ptr %9, align 4
  switch i32 %122, label %124 [
    i32 0, label %123
    i32 1, label %123
  ]

123:                                              ; preds = %121, %121
  ret void

124:                                              ; preds = %121
  unreachable
}