; Function Attrs: nounwind uwtable
define internal fastcc void @_send_launch_resp(ptr noundef readonly captures(none) %0, i32 noundef range(i32 -1, -2147483648) %1) unnamed_addr #0 {
  %3 = alloca %struct.slurm_msg, align 8
  %4 = alloca %struct.launch_tasks_response_msg, align 8
  call void @llvm.lifetime.start.p0(i64 424, ptr nonnull %3) #17
  call void @llvm.lifetime.start.p0(i64 64, ptr nonnull %4) #17
  %5 = getelementptr inbounds nuw i8, ptr %0, i64 496
  %6 = load ptr, ptr %5, align 8
  %7 = tail call ptr @list_peek(ptr noundef %6) #17
  %8 = getelementptr inbounds nuw i8, ptr %0, i64 441
  %9 = load i8, ptr %8, align 1, !range !8, !noundef !9
  %10 = trunc nuw i8 %9 to i1
  br i1 %10, label %68, label %11

11:                                               ; preds = %2
  %12 = tail call i32 @get_log_level() #17
  %13 = icmp sgt i32 %12, 4
  br i1 %13, label %14, label %15

14:                                               ; preds = %11
  tail call void (i32, ptr, ...) @log_var(i32 noundef 5, ptr noundef nonnull @.str.211, i32 noundef %1) #17
  br label %15

15:                                               ; preds = %14, %11
  call void @slurm_msg_t_init(ptr noundef nonnull %3) #17
  %16 = getelementptr inbounds nuw i8, ptr %7, i64 8
  call void @llvm.memcpy.p0.p0.i64(ptr noundef nonnull align 8 dereferenceable(128) %3, ptr noundef nonnull align 8 dereferenceable(128) %16, i64 128, i1 false)
  %17 = getelementptr inbounds nuw i8, ptr %7, i64 264
  %18 = load i32, ptr %17, align 8
  call void @slurm_msg_set_r_uid(ptr noundef nonnull %3, i32 noundef %18) #17
  %19 = getelementptr inbounds nuw i8, ptr %7, i64 268
  %20 = load i16, ptr %19, align 4
  %21 = getelementptr inbounds nuw i8, ptr %3, i64 214
  store i16 %20, ptr %21, align 2
  %22 = getelementptr inbounds nuw i8, ptr %3, i64 200
  store ptr %4, ptr %22, align 8
  %23 = getelementptr inbounds nuw i8, ptr %3, i64 212
  store i16 6002, ptr %23, align 4
  %24 = getelementptr inbounds nuw i8, ptr %4, i64 32
  %25 = getelementptr inbounds nuw i8, ptr %0, i64 112
  call void @llvm.memcpy.p0.p0.i64(ptr noundef nonnull align 8 dereferenceable(24) %24, ptr noundef nonnull align 8 dereferenceable(24) %25, i64 24, i1 false)
  %26 = getelementptr inbounds nuw i8, ptr %0, i64 312
  %27 = load ptr, ptr %26, align 8
  %28 = call ptr @xstrdup(ptr noundef %27) #17
  %29 = getelementptr inbounds nuw i8, ptr %4, i64 8
  store ptr %28, ptr %29, align 8
  store i32 %1, ptr %4, align 8
  %30 = getelementptr inbounds nuw i8, ptr %0, i64 156
  %31 = load i32, ptr %30, align 4
  %32 = getelementptr inbounds nuw i8, ptr %4, i64 20
  store i32 %31, ptr %32, align 4
  %33 = zext i32 %31 to i64
  %34 = shl nuw nsw i64 %33, 2
  %35 = call ptr @slurm_xcalloc(i64 noundef 1, i64 noundef %34, i1 noundef zeroext true, i1 noundef zeroext false, ptr noundef nonnull @.str.16, i32 noundef 2993, ptr noundef nonnull @__func__._send_launch_resp) #17
  %36 = getelementptr inbounds nuw i8, ptr %4, i64 24
  store ptr %35, ptr %36, align 8
  %37 = load i32, ptr %30, align 4
  %38 = zext i32 %37 to i64
  %39 = shl nuw nsw i64 %38, 2
  %40 = call ptr @slurm_xcalloc(i64 noundef 1, i64 noundef %39, i1 noundef zeroext true, i1 noundef zeroext false, ptr noundef nonnull @.str.16, i32 noundef 2994, ptr noundef nonnull @__func__._send_launch_resp) #17
  %41 = getelementptr inbounds nuw i8, ptr %4, i64 56
  store ptr %40, ptr %41, align 8
  %42 = load i32, ptr %30, align 4
  %.not22 = icmp eq i32 %42, 0
  br i1 %.not22, label %._crit_edge, label %.lr.ph

.lr.ph:                                           ; preds = %15
  %43 = getelementptr inbounds nuw i8, ptr %0, i64 480
  br label %44

44:                                               ; preds = %.lr.ph, %44
  %indvars.iv = phi i64 [ 0, %.lr.ph ], [ %indvars.iv.next, %44 ]
  %45 = load ptr, ptr %43, align 8
  %46 = getelementptr inbounds nuw ptr, ptr %45, i64 %indvars.iv
  %47 = load ptr, ptr %46, align 8
  %48 = getelementptr inbounds nuw i8, ptr %47, i64 64
  %49 = load i32, ptr %48, align 8
  %50 = load ptr, ptr %36, align 8
  %51 = getelementptr inbounds nuw i32, ptr %50, i64 %indvars.iv
  store i32 %49, ptr %51, align 4
  %52 = load ptr, ptr %43, align 8
  %53 = getelementptr inbounds nuw ptr, ptr %52, i64 %indvars.iv
  %54 = load ptr, ptr %53, align 8
  %55 = getelementptr inbounds nuw i8, ptr %54, i64 60
  %56 = load i32, ptr %55, align 4
  %57 = load ptr, ptr %41, align 8
  %58 = getelementptr inbounds nuw i32, ptr %57, i64 %indvars.iv
  store i32 %56, ptr %58, align 4
  %indvars.iv.next = add nuw nsw i64 %indvars.iv, 1
  %59 = load i32, ptr %30, align 4
  %60 = zext i32 %59 to i64
  %61 = icmp samesign ult i64 %indvars.iv.next, %60
  br i1 %61, label %44, label %._crit_edge, !llvm.loop !30

._crit_edge:                                      ; preds = %44, %15
  %62 = getelementptr inbounds nuw i8, ptr %0, i64 144
  %63 = load i32, ptr %62, align 8
  %64 = call fastcc i32 @_send_srun_resp_msg(ptr noundef %3, i32 noundef %63)
  %.not = icmp eq i32 %64, 0
  br i1 %.not, label %67, label %65

65:                                               ; preds = %._crit_edge
  %66 = call i32 (ptr, ...) @error(ptr noundef nonnull @.str.210, ptr noundef nonnull @__func__._send_launch_resp) #17
  br label %67

67:                                               ; preds = %65, %._crit_edge
  call void @slurm_xfree(ptr noundef nonnull %36) #17
  call void @slurm_xfree(ptr noundef nonnull %41) #17
  call void @slurm_xfree(ptr noundef nonnull %29) #17
  br label %68

68:                                               ; preds = %2, %67
  call void @llvm.lifetime.end.p0(i64 64, ptr nonnull %4) #17
  call void @llvm.lifetime.end.p0(i64 424, ptr nonnull %3) #17
  ret void
}